; Function Attrs: nounwind uwtable
define internal ptr @Struct_iter_unpack(ptr noundef %0, ptr noundef %1) #0 {
  %3 = getelementptr i8, ptr %0, i64 8
  %.val22 = load ptr, ptr %3, align 8, !tbaa !24
  %4 = tail call ptr @PyType_GetModuleByDef(ptr noundef %.val22, ptr noundef nonnull @_structmodule) #7
  %5 = getelementptr i8, ptr %4, i64 32
  %.val = load ptr, ptr %5, align 8, !tbaa !3
  %6 = getelementptr inbounds nuw i8, ptr %0, i64 16
  %7 = load i64, ptr %6, align 8, !tbaa !20
  %8 = icmp eq i64 %7, 0
  br i1 %8, label %9, label %13

9:                                                ; preds = %2
  %10 = getelementptr inbounds nuw i8, ptr %.val, i64 24
  %11 = load ptr, ptr %10, align 8, !tbaa !16
  %12 = tail call ptr (ptr, ptr, ...) @PyErr_Format(ptr noundef %11, ptr noundef nonnull @.str.9) #7
  br label %Py_DECREF.exit20

13:                                               ; preds = %2
  %14 = getelementptr inbounds nuw i8, ptr %.val, i64 16
  %15 = load ptr, ptr %14, align 8, !tbaa !15
  %16 = tail call ptr @PyType_GenericAlloc(ptr noundef %15, i64 noundef 0) #7
  %17 = icmp eq ptr %16, null
  br i1 %17, label %Py_DECREF.exit20, label %18

18:                                               ; preds = %13
  %19 = getelementptr inbounds nuw i8, ptr %16, i64 24
  %20 = tail call i32 @PyObject_GetBuffer(ptr noundef %1, ptr noundef nonnull %19, i32 noundef 0) #7
  %21 = icmp slt i32 %20, 0
  br i1 %21, label %22, label %28

22:                                               ; preds = %18
  %23 = load i32, ptr %16, align 8, !tbaa !18
  %.not.i19 = icmp sgt i32 %23, -1
  br i1 %.not.i19, label %24, label %Py_DECREF.exit20

24:                                               ; preds = %22
  %25 = add nsw i32 %23, -1
  store i32 %25, ptr %16, align 8, !tbaa !18
  %26 = icmp eq i32 %25, 0
  br i1 %26, label %27, label %Py_DECREF.exit20

27:                                               ; preds = %24
  tail call void @_Py_Dealloc(ptr noundef nonnull %16) #7
  br label %Py_DECREF.exit20

28:                                               ; preds = %18
  %29 = getelementptr inbounds nuw i8, ptr %16, i64 40
  %30 = load i64, ptr %29, align 8, !tbaa !38
  %31 = load i64, ptr %6, align 8, !tbaa !20
  %32 = srem i64 %30, %31
  %.not = icmp eq i64 %32, 0
  br i1 %.not, label %42, label %33

33:                                               ; preds = %28
  %34 = getelementptr inbounds nuw i8, ptr %.val, i64 24
  %35 = load ptr, ptr %34, align 8, !tbaa !16
  %36 = tail call ptr (ptr, ptr, ...) @PyErr_Format(ptr noundef %35, ptr noundef nonnull @.str.10, i64 noundef %31) #7
  %37 = load i32, ptr %16, align 8, !tbaa !18
  %.not.i = icmp sgt i32 %37, -1
  br i1 %.not.i, label %38, label %Py_DECREF.exit20

38:                                               ; preds = %33
  %39 = add nsw i32 %37, -1
  store i32 %39, ptr %16, align 8, !tbaa !18
  %40 = icmp eq i32 %39, 0
  br i1 %40, label %41, label %Py_DECREF.exit20

41:                                               ; preds = %38
  tail call void @_Py_Dealloc(ptr noundef nonnull %16) #7
  br label %Py_DECREF.exit20

42:                                               ; preds = %28
  %43 = load i32, ptr %0, align 8, !tbaa !18
  %44 = icmp slt i32 %43, 0
  br i1 %44, label %_Py_NewRef.exit, label %45

45:                                               ; preds = %42
  %46 = add nuw i32 %43, 1
  store i32 %46, ptr %0, align 8, !tbaa !18
  br label %_Py_NewRef.exit

_Py_NewRef.exit:                                  ; preds = %42, %45
  %47 = getelementptr inbounds nuw i8, ptr %16, i64 16
  store ptr %0, ptr %47, align 8, !tbaa !40
  %48 = getelementptr inbounds nuw i8, ptr %16, i64 104
  store i64 0, ptr %48, align 8, !tbaa !41
  br label %Py_DECREF.exit20

Py_DECREF.exit20:                                 ; preds = %41, %38, %33, %27, %24, %22, %13, %_Py_NewRef.exit, %9
  %.0 = phi ptr [ null, %9 ], [ %16, %_Py_NewRef.exit ], [ null, %13 ], [ null, %22 ], [ null, %24 ], [ null, %27 ], [ null, %33 ], [ null, %38 ], [ null, %41 ]
  ret ptr %.0
}